; Function Attrs: mustprogress nounwind uwtable
define void @_ZN6LibRawD2Ev(ptr noundef nonnull align 8 dereferenceable(767680) initializes((0, 8)) %0) unnamed_addr #5 align 2 personality ptr @__gxx_personality_v0 {
  store ptr getelementptr inbounds nuw inrange(-16, 176) (i8, ptr @_ZTV6LibRaw, i64 16), ptr %0, align 8, !tbaa !6
  invoke void @_ZN6LibRaw7recycleEv(ptr noundef nonnull align 8 dereferenceable(767680) %0)
          to label %2 unwind label %18

2:                                                ; preds = %1
  %3 = getelementptr inbounds nuw i8, ptr %0, i64 381408
  %4 = load ptr, ptr %3, align 8, !tbaa !109
  %5 = icmp eq ptr %4, null
  br i1 %5, label %7, label %6

6:                                                ; preds = %2
  tail call void @_ZdlPvm(ptr noundef nonnull %4, i64 noundef 283232) #13
  br label %7

7:                                                ; preds = %6, %2
  %8 = getelementptr inbounds nuw i8, ptr %0, i64 767416
  br label %9

9:                                                ; preds = %16, %7
  %indvars.iv.i.i = phi i64 [ 0, %7 ], [ %indvars.iv.next.i.i, %16 ]
  %10 = load ptr, ptr %8, align 8, !tbaa !14
  %11 = getelementptr inbounds nuw ptr, ptr %10, i64 %indvars.iv.i.i
  %12 = load ptr, ptr %11, align 8, !tbaa !122
  %.not.i.i = icmp eq ptr %12, null
  br i1 %.not.i.i, label %16, label %13

13:                                               ; preds = %9
  tail call void @free(ptr noundef nonnull %12) #12
  %14 = load ptr, ptr %8, align 8, !tbaa !14
  %15 = getelementptr inbounds nuw ptr, ptr %14, i64 %indvars.iv.i.i
  store ptr null, ptr %15, align 8, !tbaa !122
  br label %16

16:                                               ; preds = %13, %9
  %indvars.iv.next.i.i = add nuw nsw i64 %indvars.iv.i.i, 1
  %exitcond.not.i.i = icmp eq i64 %indvars.iv.next.i.i, 512
  br i1 %exitcond.not.i.i, label %_ZN13libraw_memmgrD2Ev.exit, label %9, !llvm.loop !123

_ZN13libraw_memmgrD2Ev.exit:                      ; preds = %16
  %17 = load ptr, ptr %8, align 8, !tbaa !14
  tail call void @free(ptr noundef %17) #12
  ret void

18:                                               ; preds = %1
  %19 = landingpad { ptr, i32 }
          catch ptr null
  %20 = extractvalue { ptr, i32 } %19, 0
  tail call void @__clang_call_terminate(ptr %20) #14
  unreachable
}